target datalayout = "e-m:e-p270:32:32-p271:32:32-p272:64:64-i64:64-i128:128-f80:128-n8:16:32:64-S128"
target triple = "x86_64-pc-linux-gnu"

%struct.block_record_t = type { i32, ptr, ptr, ptr, i16 }
%struct.node_record = type { ptr, ptr, i16, i64, i64, ptr, ptr, ptr, i16, ptr, i16, i16, i32, i32, i64, ptr, i16, i16, ptr, ptr, ptr, ptr, ptr, i64, i64, ptr, ptr, ptr, ptr, i32, ptr, ptr, i64, i64, i32, ptr, i64, ptr, i32, i16, ptr, ptr, i32, ptr, i32, i8, ptr, i32, i16, i16, ptr, i16, i64, i16, i64, ptr, i64, i32, i16, i64, i16, ptr, i16, i64, ptr, i64, i16, i32, i16, ptr, ptr, ptr, i16, i32, i16, i16, i32, ptr, i16, i32 }

@block_record_cnt = external global i32, align 4
@block_record_table = external global ptr, align 8
@.str.1 = private unnamed_addr constant [6 x i8] c"%s.%s\00", align 1
@.str.2 = private unnamed_addr constant [11 x i8] c"block.node\00", align 1

; Function Attrs: nounwind uwtable
define dso_local i32 @topology_p_get_node_addr(ptr noundef %0, ptr noundef %1, ptr noundef %2) #0 {
  %4 = alloca i32, align 4
  %5 = alloca ptr, align 8
  %6 = alloca ptr, align 8
  %7 = alloca ptr, align 8
  %8 = alloca ptr, align 8
  %9 = alloca i32, align 4
  %10 = alloca i32, align 4
  store ptr %0, ptr %5, align 8
  store ptr %1, ptr %6, align 8
  store ptr %2, ptr %7, align 8
  call void @llvm.lifetime.start.p0(i64 8, ptr %8) #8
  %11 = load ptr, ptr %5, align 8
  %12 = call ptr @slurm_find_node_record(ptr noundef %11)
  store ptr %12, ptr %8, align 8
  %13 = load ptr, ptr %8, align 8
  %14 = icmp ne ptr %13, null
  br i1 %14, label %16, label %15

15:                                               ; preds = %3
  store i32 -1, ptr %4, align 4
  store i32 1, ptr %9, align 4
  br label %58

16:                                               ; preds = %3
  call void @llvm.lifetime.start.p0(i64 4, ptr %10) #8
  store i32 0, ptr %10, align 4
  br label %17

17:                                               ; preds = %48, %16
  %18 = load i32, ptr %10, align 4
  %19 = load i32, ptr @block_record_cnt, align 4
  %20 = icmp slt i32 %18, %19
  br i1 %20, label %22, label %21

21:                                               ; preds = %17
  store i32 2, ptr %9, align 4
  br label %51

22:                                               ; preds = %17
  %23 = load ptr, ptr @block_record_table, align 8
  %24 = load i32, ptr %10, align 4
  %25 = sext i32 %24 to i64
  %26 = getelementptr inbounds %struct.block_record_t, ptr %23, i64 %25
  %27 = getelementptr inbounds nuw %struct.block_record_t, ptr %26, i32 0, i32 2
  %28 = load ptr, ptr %27, align 8
  %29 = load ptr, ptr %8, align 8
  %30 = getelementptr inbounds nuw %struct.node_record, ptr %29, i32 0, i32 29
  %31 = load i32, ptr %30, align 8
  %32 = zext i32 %31 to i64
  %33 = call i32 @slurm_bit_test(ptr noundef %28, i64 noundef %32)
  %34 = icmp ne i32 %33, 0
  br i1 %34, label %35, label %47

35:                                               ; preds = %22
  %36 = load ptr, ptr @block_record_table, align 8
  %37 = load i32, ptr %10, align 4
  %38 = sext i32 %37 to i64
  %39 = getelementptr inbounds %struct.block_record_t, ptr %36, i64 %38
  %40 = getelementptr inbounds nuw %struct.block_record_t, ptr %39, i32 0, i32 1
  %41 = load ptr, ptr %40, align 8
  %42 = load ptr, ptr %5, align 8
  %43 = call ptr (ptr, ...) @slurm_xstrdup_printf(ptr noundef @.str.1, ptr noundef %41, ptr noundef %42)
  %44 = load ptr, ptr %6, align 8
  store ptr %43, ptr %44, align 8
  %45 = call ptr @slurm_xstrdup(ptr noundef @.str.2)
  %46 = load ptr, ptr %7, align 8
  store ptr %45, ptr %46, align 8
  store i32 0, ptr %4, align 4
  store i32 1, ptr %9, align 4
  br label %51

47:                                               ; preds = %22
  br label %48

48:                                               ; preds = %47
  %49 = load i32, ptr %10, align 4
  %50 = add nsw i32 %49, 1
  store i32 %50, ptr %10, align 4
  br label %17, !llvm.loop !12

51:                                               ; preds = %35, %21
  call void @llvm.lifetime.end.p0(i64 4, ptr %10) #8
  %52 = load i32, ptr %9, align 4
  switch i32 %52, label %58 [
    i32 2, label %53
  ]

53:                                               ; preds = %51
  %54 = load ptr, ptr %5, align 8
  %55 = load ptr, ptr %6, align 8
  %56 = load ptr, ptr %7, align 8
  %57 = call i32 @common_topo_get_node_addr(ptr noundef %54, ptr noundef %55, ptr noundef %56)
  store i32 %57, ptr %4, align 4
  store i32 1, ptr %9, align 4
  br label %58

58:                                               ; preds = %53, %51, %15
  call void @llvm.lifetime.end.p0(i64 8, ptr %8) #8
  %59 = load i32, ptr %4, align 4
  ret i32 %59
}