; Function Attrs: nounwind uwtable
define dso_local i32 @topology_p_get_node_addr(ptr noundef %0, ptr noundef %1, ptr noundef %2) local_unnamed_addr #0 {
  %4 = tail call ptr @slurm_find_node_record(ptr noundef %0) #9
  %.not = icmp eq ptr %4, null
  br i1 %.not, label %24, label %.preheader

.preheader:                                       ; preds = %3
  %5 = load i32, ptr @block_record_cnt, align 4
  %.not1819 = icmp sgt i32 %5, 0
  br i1 %.not1819, label %.lr.ph, label %.critedge

.lr.ph:                                           ; preds = %.preheader
  %6 = getelementptr inbounds nuw i8, ptr %4, i64 208
  br label %10

7:                                                ; preds = %10
  %indvars.iv.next = add nuw nsw i64 %indvars.iv, 1
  %8 = load i32, ptr @block_record_cnt, align 4
  %9 = sext i32 %8 to i64
  %.not18 = icmp slt i64 %indvars.iv.next, %9
  br i1 %.not18, label %10, label %.critedge, !llvm.loop !12

10:                                               ; preds = %.lr.ph, %7
  %indvars.iv = phi i64 [ 0, %.lr.ph ], [ %indvars.iv.next, %7 ]
  %11 = load ptr, ptr @block_record_table, align 8
  %12 = getelementptr inbounds nuw %struct.block_record_t, ptr %11, i64 %indvars.iv, i32 2
  %13 = load ptr, ptr %12, align 8
  %14 = load i32, ptr %6, align 8
  %15 = zext i32 %14 to i64
  %16 = tail call i32 @slurm_bit_test(ptr noundef %13, i64 noundef %15) #9
  %.not17 = icmp eq i32 %16, 0
  br i1 %.not17, label %7, label %17

17:                                               ; preds = %10
  %18 = load ptr, ptr @block_record_table, align 8
  %19 = getelementptr inbounds nuw %struct.block_record_t, ptr %18, i64 %indvars.iv, i32 1
  %20 = load ptr, ptr %19, align 8
  %21 = tail call ptr (ptr, ...) @slurm_xstrdup_printf(ptr noundef nonnull @.str.1, ptr noundef %20, ptr noundef %0) #9
  store ptr %21, ptr %1, align 8
  %22 = tail call ptr @slurm_xstrdup(ptr noundef nonnull @.str.2) #9
  store ptr %22, ptr %2, align 8
  br label %24

.critedge:                                        ; preds = %7, %.preheader
  %23 = tail call i32 @common_topo_get_node_addr(ptr noundef %0, ptr noundef %1, ptr noundef %2) #9
  br label %24

24:                                               ; preds = %17, %3, %.critedge
  %.015 = phi i32 [ %23, %.critedge ], [ 0, %17 ], [ -1, %3 ]
  ret i32 %.015
}